; Function Attrs: mustprogress nofree norecurse nosync nounwind willreturn memory(argmem: readwrite) uwtable
define ptr @udtitvfmt_resultAsValue_77(ptr noundef readonly %0, ptr noundef captures(none) %1) local_unnamed_addr #12 {
  %3 = load i32, ptr %1, align 4, !tbaa !13
  %4 = icmp slt i32 %3, 1
  br i1 %4, label %5, label %_ZN6icu_7713IcuCApiHelperI22UFormattedDateIntervalNS_26UFormattedDateIntervalImplELi1178880342EE8validateEPKS1_R10UErrorCode.exit

5:                                                ; preds = %2
  %6 = icmp eq ptr %0, null
  br i1 %6, label %.sink.split.i, label %7

7:                                                ; preds = %5
  %8 = getelementptr inbounds nuw i8, ptr %0, i64 16
  %9 = load i32, ptr %8, align 4, !tbaa !17
  %.not9.i = icmp eq i32 %9, 1178880342
  br i1 %.not9.i, label %_ZN6icu_7713IcuCApiHelperI22UFormattedDateIntervalNS_26UFormattedDateIntervalImplELi1178880342EE8validateEPKS1_R10UErrorCode.exit, label %.sink.split.i

.sink.split.i:                                    ; preds = %7, %5
  %.sink.i = phi i32 [ 1, %5 ], [ 3, %7 ]
  store i32 %.sink.i, ptr %1, align 4, !tbaa !13
  br label %_ZN6icu_7713IcuCApiHelperI22UFormattedDateIntervalNS_26UFormattedDateIntervalImplELi1178880342EE8validateEPKS1_R10UErrorCode.exit

_ZN6icu_7713IcuCApiHelperI22UFormattedDateIntervalNS_26UFormattedDateIntervalImplELi1178880342EE8validateEPKS1_R10UErrorCode.exit: ; preds = %2, %7, %.sink.split.i
  %10 = phi i32 [ %3, %2 ], [ %3, %7 ], [ %.sink.i, %.sink.split.i ]
  %.0.i = phi ptr [ null, %2 ], [ %0, %7 ], [ null, %.sink.split.i ]
  %11 = icmp slt i32 %10, 1
  %spec.select = select i1 %11, ptr %.0.i, ptr null
  ret ptr %spec.select
}